target datalayout = "e-m:e-p270:32:32-p271:32:32-p272:64:64-i64:64-i128:128-f80:128-n8:16:32:64-S128"
target triple = "x86_64-unknown-linux-gnu"

%"struct.std::_Rb_tree_header" = type { %"struct.std::_Rb_tree_node_base", i64 }
%"struct.std::_Rb_tree_node_base" = type { i32, ptr, ptr, ptr }
%"class.grpc_core::ChannelArgs" = type { %"class.grpc_core::AVL" }
%"class.grpc_core::AVL" = type { %"class.grpc_core::RefCountedPtr.127" }
%"class.grpc_core::RefCountedPtr.127" = type { ptr }
%"class.grpc_core::EndpointAddresses" = type { %"class.std::vector.185", %"class.grpc_core::ChannelArgs" }
%"class.std::vector.185" = type { %"struct.std::_Vector_base.186" }
%"struct.std::_Vector_base.186" = type { %"struct.std::_Vector_base<grpc_resolved_address, std::allocator<grpc_resolved_address>>::_Vector_impl" }
%"struct.std::_Vector_base<grpc_resolved_address, std::allocator<grpc_resolved_address>>::_Vector_impl" = type { %"struct.std::_Vector_base<grpc_resolved_address, std::allocator<grpc_resolved_address>>::_Vector_impl_data" }
%"struct.std::_Vector_base<grpc_resolved_address, std::allocator<grpc_resolved_address>>::_Vector_impl_data" = type { ptr, ptr, ptr }
%"class.grpc_core::EndpointAddressSet" = type { %"class.std::set.447" }
%"class.std::set.447" = type { %"class.std::_Rb_tree.448" }
%"class.std::_Rb_tree.448" = type { %"struct.std::_Rb_tree<grpc_resolved_address, grpc_resolved_address, std::_Identity<grpc_resolved_address>, grpc_core::ResolvedAddressLessThan>::_Rb_tree_impl" }
%"struct.std::_Rb_tree<grpc_resolved_address, grpc_resolved_address, std::_Identity<grpc_resolved_address>, grpc_core::ResolvedAddressLessThan>::_Rb_tree_impl" = type { %"struct.std::_Rb_tree_key_compare.452", %"struct.std::_Rb_tree_header" }
%"struct.std::_Rb_tree_key_compare.452" = type { %"struct.grpc_core::ResolvedAddressLessThan" }
%"struct.grpc_core::ResolvedAddressLessThan" = type { i8 }
%"class.__gnu_cxx::__normal_iterator.465" = type { ptr }

; Function Attrs: mustprogress nounwind uwtable
define linkonce_odr void @_ZN9__gnu_cxx17__normal_iteratorIPK21grpc_resolved_addressSt6vectorIS1_SaIS1_EEEC2ERKS3_(ptr noundef nonnull align 8 dereferenceable(8) %this, ptr noundef nonnull align 8 dereferenceable(8) %__i) unnamed_addr #5 comdat align 2 {
entry:
  %this.addr = alloca ptr, align 8
  %__i.addr = alloca ptr, align 8
  store ptr %this, ptr %this.addr, align 8
  store ptr %__i, ptr %__i.addr, align 8
  %this1 = load ptr, ptr %this.addr, align 8
  %_M_current = getelementptr inbounds %"class.__gnu_cxx::__normal_iterator.465", ptr %this1, i32 0, i32 0
  %0 = load ptr, ptr %__i.addr, align 8
  %1 = load ptr, ptr %0, align 8
  store ptr %1, ptr %_M_current, align 8
  ret void
}

; Function Attrs: mustprogress nounwind uwtable
define linkonce_odr ptr @_ZNKSt6vectorI21grpc_resolved_addressSaIS0_EE3endEv(ptr noundef nonnull align 8 dereferenceable(24) %this) #5 comdat align 2 {
entry:
  %retval = alloca %"class.__gnu_cxx::__normal_iterator.465", align 8
  %this.addr = alloca ptr, align 8
  store ptr %this, ptr %this.addr, align 8
  %this1 = load ptr, ptr %this.addr, align 8
  %_M_impl = getelementptr inbounds %"struct.std::_Vector_base.186", ptr %this1, i32 0, i32 0
  %_M_finish = getelementptr inbounds %"struct.std::_Vector_base<grpc_resolved_address, std::allocator<grpc_resolved_address>>::_Vector_impl_data", ptr %_M_impl, i32 0, i32 1
  call void @_ZN9__gnu_cxx17__normal_iteratorIPK21grpc_resolved_addressSt6vectorIS1_SaIS1_EEEC2ERKS3_(ptr noundef nonnull align 8 dereferenceable(8) %retval, ptr noundef nonnull align 8 dereferenceable(8) %_M_finish) #3
  %coerce.dive = getelementptr inbounds %"class.__gnu_cxx::__normal_iterator.465", ptr %retval, i32 0, i32 0
  %0 = load ptr, ptr %coerce.dive, align 8
  ret ptr %0
}

; Function Attrs: mustprogress nounwind uwtable
define linkonce_odr ptr @_ZNKSt6vectorI21grpc_resolved_addressSaIS0_EE5beginEv(ptr noundef nonnull align 8 dereferenceable(24) %this) #5 comdat align 2 {
entry:
  %retval = alloca %"class.__gnu_cxx::__normal_iterator.465", align 8
  %this.addr = alloca ptr, align 8
  store ptr %this, ptr %this.addr, align 8
  %this1 = load ptr, ptr %this.addr, align 8
  %_M_impl = getelementptr inbounds %"struct.std::_Vector_base.186", ptr %this1, i32 0, i32 0
  %_M_start = getelementptr inbounds %"struct.std::_Vector_base<grpc_resolved_address, std::allocator<grpc_resolved_address>>::_Vector_impl_data", ptr %_M_impl, i32 0, i32 0
  call void @_ZN9__gnu_cxx17__normal_iteratorIPK21grpc_resolved_addressSt6vectorIS1_SaIS1_EEEC2ERKS3_(ptr noundef nonnull align 8 dereferenceable(8) %retval, ptr noundef nonnull align 8 dereferenceable(8) %_M_start) #3
  %coerce.dive = getelementptr inbounds %"class.__gnu_cxx::__normal_iterator.465", ptr %retval, i32 0, i32 0
  %0 = load ptr, ptr %coerce.dive, align 8
  ret ptr %0
}

; Function Attrs: mustprogress uwtable
define linkonce_odr void @_ZN9grpc_core18EndpointAddressSetC2ERKSt6vectorI21grpc_resolved_addressSaIS2_EE(ptr noundef nonnull align 8 dereferenceable(48) %this, ptr noundef nonnull align 8 dereferenceable(24) %addresses) unnamed_addr #4 comdat align 2 {
entry:
  %this.addr = alloca ptr, align 8
  %addresses.addr = alloca ptr, align 8
  %agg.tmp = alloca %"class.__gnu_cxx::__normal_iterator.465", align 8
  %agg.tmp2 = alloca %"class.__gnu_cxx::__normal_iterator.465", align 8
  store ptr %this, ptr %this.addr, align 8
  store ptr %addresses, ptr %addresses.addr, align 8
  %this1 = load ptr, ptr %this.addr, align 8
  %addresses_ = getelementptr inbounds %"class.grpc_core::EndpointAddressSet", ptr %this1, i32 0, i32 0
  %0 = load ptr, ptr %addresses.addr, align 8
  %call = call ptr @_ZNKSt6vectorI21grpc_resolved_addressSaIS0_EE5beginEv(ptr noundef nonnull align 8 dereferenceable(24) %0) #3
  %coerce.dive = getelementptr inbounds %"class.__gnu_cxx::__normal_iterator.465", ptr %agg.tmp, i32 0, i32 0
  store ptr %call, ptr %coerce.dive, align 8
  %1 = load ptr, ptr %addresses.addr, align 8
  %call3 = call ptr @_ZNKSt6vectorI21grpc_resolved_addressSaIS0_EE3endEv(ptr noundef nonnull align 8 dereferenceable(24) %1) #3
  %coerce.dive4 = getelementptr inbounds %"class.__gnu_cxx::__normal_iterator.465", ptr %agg.tmp2, i32 0, i32 0
  store ptr %call3, ptr %coerce.dive4, align 8
  %coerce.dive5 = getelementptr inbounds %"class.__gnu_cxx::__normal_iterator.465", ptr %agg.tmp, i32 0, i32 0
  %2 = load ptr, ptr %coerce.dive5, align 8
  %coerce.dive6 = getelementptr inbounds %"class.__gnu_cxx::__normal_iterator.465", ptr %agg.tmp2, i32 0, i32 0
  %3 = load ptr, ptr %coerce.dive6, align 8
  call void @_ZNSt3setI21grpc_resolved_addressN9grpc_core23ResolvedAddressLessThanESaIS0_EEC2IN9__gnu_cxx17__normal_iteratorIPKS0_St6vectorIS0_S3_EEEEET_SD_(ptr noundef nonnull align 8 dereferenceable(48) %addresses_, ptr %2, ptr %3)
  ret void
}

; Function Attrs: mustprogress nounwind uwtable
define linkonce_odr noundef nonnull align 8 dereferenceable(24) ptr @_ZNK9grpc_core17EndpointAddresses9addressesEv(ptr noundef nonnull align 8 dereferenceable(32) %this) #5 comdat align 2 {
entry:
  %this.addr = alloca ptr, align 8
  store ptr %this, ptr %this.addr, align 8
  %this1 = load ptr, ptr %this.addr, align 8
  %addresses_ = getelementptr inbounds %"class.grpc_core::EndpointAddresses", ptr %this1, i32 0, i32 0
  ret ptr %addresses_
}

; Function Attrs: mustprogress uwtable
define internal noundef zeroext i1 @_ZZN9grpc_core12_GLOBAL__N_118WeightedRoundRobin12UpdateLockedENS_19LoadBalancingPolicy10UpdateArgsEENK25EndpointAddressesLessThanclERKNS_17EndpointAddressesES7_(ptr noundef nonnull align 1 dereferenceable(1) %this, ptr noundef nonnull align 8 dereferenceable(32) %endpoint1, ptr noundef nonnull align 8 dereferenceable(32) %endpoint2) #4 align 2 personality ptr @__gxx_personality_v0 {
entry:
  %this.addr = alloca ptr, align 8
  %endpoint1.addr = alloca ptr, align 8
  %endpoint2.addr = alloca ptr, align 8
  %e1 = alloca %"class.grpc_core::EndpointAddressSet", align 8
  %e2 = alloca %"class.grpc_core::EndpointAddressSet", align 8
  %exn.slot = alloca ptr, align 8
  %ehselector.slot = alloca i32, align 4
  store ptr %this, ptr %this.addr, align 8
  store ptr %endpoint1, ptr %endpoint1.addr, align 8
  store ptr %endpoint2, ptr %endpoint2.addr, align 8
  %0 = load ptr, ptr %endpoint1.addr, align 8
  %call = call noundef nonnull align 8 dereferenceable(24) ptr @_ZNK9grpc_core17EndpointAddresses9addressesEv(ptr noundef nonnull align 8 dereferenceable(32) %0)
  call void @_ZN9grpc_core18EndpointAddressSetC2ERKSt6vectorI21grpc_resolved_addressSaIS2_EE(ptr noundef nonnull align 8 dereferenceable(48) %e1, ptr noundef nonnull align 8 dereferenceable(24) %call)
  %1 = load ptr, ptr %endpoint2.addr, align 8
  %call2 = invoke noundef nonnull align 8 dereferenceable(24) ptr @_ZNK9grpc_core17EndpointAddresses9addressesEv(ptr noundef nonnull align 8 dereferenceable(32) %1)
          to label %invoke.cont unwind label %lpad

invoke.cont:                                      ; preds = %entry
  invoke void @_ZN9grpc_core18EndpointAddressSetC2ERKSt6vectorI21grpc_resolved_addressSaIS2_EE(ptr noundef nonnull align 8 dereferenceable(48) %e2, ptr noundef nonnull align 8 dereferenceable(24) %call2)
          to label %invoke.cont3 unwind label %lpad

invoke.cont3:                                     ; preds = %invoke.cont
  %call6 = invoke noundef zeroext i1 @_ZNK9grpc_core18EndpointAddressSetltERKS0_(ptr noundef nonnull align 8 dereferenceable(48) %e1, ptr noundef nonnull align 8 dereferenceable(48) %e2)
          to label %invoke.cont5 unwind label %lpad4

invoke.cont5:                                     ; preds = %invoke.cont3
  call void @_ZN9grpc_core18EndpointAddressSetD2Ev(ptr noundef nonnull align 8 dereferenceable(48) %e2) #3
  call void @_ZN9grpc_core18EndpointAddressSetD2Ev(ptr noundef nonnull align 8 dereferenceable(48) %e1) #3
  ret i1 %call6

lpad:                                             ; preds = %invoke.cont, %entry
  %2 = landingpad { ptr, i32 }
          cleanup
  %3 = extractvalue { ptr, i32 } %2, 0
  store ptr %3, ptr %exn.slot, align 8
  %4 = extractvalue { ptr, i32 } %2, 1
  store i32 %4, ptr %ehselector.slot, align 4
  br label %ehcleanup

lpad4:                                            ; preds = %invoke.cont3
  %5 = landingpad { ptr, i32 }
          cleanup
  %6 = extractvalue { ptr, i32 } %5, 0
  store ptr %6, ptr %exn.slot, align 8
  %7 = extractvalue { ptr, i32 } %5, 1
  store i32 %7, ptr %ehselector.slot, align 4
  call void @_ZN9grpc_core18EndpointAddressSetD2Ev(ptr noundef nonnull align 8 dereferenceable(48) %e2) #3
  br label %ehcleanup

ehcleanup:                                        ; preds = %lpad4, %lpad
  call void @_ZN9grpc_core18EndpointAddressSetD2Ev(ptr noundef nonnull align 8 dereferenceable(48) %e1) #3
  br label %eh.resume

eh.resume:                                        ; preds = %ehcleanup
  %exn = load ptr, ptr %exn.slot, align 8
  %sel = load i32, ptr %ehselector.slot, align 4
  %lpad.val = insertvalue { ptr, i32 } poison, ptr %exn, 0
  %lpad.val7 = insertvalue { ptr, i32 } %lpad.val, i32 %sel, 1
  resume { ptr, i32 } %lpad.val7
}