; Function Attrs: mustprogress uwtable
define internal fastcc noundef zeroext i1 @_ZZN9grpc_core12_GLOBAL__N_118WeightedRoundRobin12UpdateLockedENS_19LoadBalancingPolicy10UpdateArgsEENK25EndpointAddressesLessThanclERKNS_17EndpointAddressesES7_(ptr %endpoint1.0.val, ptr %endpoint1.8.val, ptr nocapture noundef nonnull readonly align 8 dereferenceable(32) %endpoint2) unnamed_addr #3 align 2 personality ptr @__gxx_personality_v0 {
entry:
  %e1 = alloca %"class.grpc_core::EndpointAddressSet", align 8
  %e2 = alloca %"class.grpc_core::EndpointAddressSet", align 8
  call void @_ZNSt3setI21grpc_resolved_addressN9grpc_core23ResolvedAddressLessThanESaIS0_EEC2IN9__gnu_cxx17__normal_iteratorIPKS0_St6vectorIS0_S3_EEEEET_SD_(ptr noundef nonnull align 8 dereferenceable(48) %e1, ptr %endpoint1.0.val, ptr %endpoint1.8.val)
  %0 = load ptr, ptr %endpoint2, align 8
  %_M_finish.i.i2 = getelementptr inbounds i8, ptr %endpoint2, i64 8
  %1 = load ptr, ptr %_M_finish.i.i2, align 8
  invoke void @_ZNSt3setI21grpc_resolved_addressN9grpc_core23ResolvedAddressLessThanESaIS0_EEC2IN9__gnu_cxx17__normal_iteratorIPKS0_St6vectorIS0_S3_EEEEET_SD_(ptr noundef nonnull align 8 dereferenceable(48) %e2, ptr %0, ptr %1)
          to label %invoke.cont3 unwind label %lpad

invoke.cont3:                                     ; preds = %entry
  %call6 = invoke noundef zeroext i1 @_ZNK9grpc_core18EndpointAddressSetltERKS0_(ptr noundef nonnull align 8 dereferenceable(48) %e1, ptr noundef nonnull align 8 dereferenceable(48) %e2)
          to label %invoke.cont5 unwind label %lpad4

invoke.cont5:                                     ; preds = %invoke.cont3
  %_M_parent.i.i.i.i.i = getelementptr inbounds i8, ptr %e2, i64 16
  %2 = load ptr, ptr %_M_parent.i.i.i.i.i, align 8
  invoke void @_ZNSt8_Rb_treeI21grpc_resolved_addressS0_St9_IdentityIS0_EN9grpc_core23ResolvedAddressLessThanESaIS0_EE8_M_eraseEPSt13_Rb_tree_nodeIS0_E(ptr noundef nonnull align 8 dereferenceable(48) %e2, ptr noundef %2)
          to label %_ZN9grpc_core18EndpointAddressSetD2Ev.exit unwind label %terminate.lpad.i.i.i

terminate.lpad.i.i.i:                             ; preds = %invoke.cont5
  %3 = landingpad { ptr, i32 }
          catch ptr null
  %4 = extractvalue { ptr, i32 } %3, 0
  call void @__clang_call_terminate(ptr %4) #31
  unreachable

_ZN9grpc_core18EndpointAddressSetD2Ev.exit:       ; preds = %invoke.cont5
  %_M_parent.i.i.i.i.i3 = getelementptr inbounds i8, ptr %e1, i64 16
  %5 = load ptr, ptr %_M_parent.i.i.i.i.i3, align 8
  invoke void @_ZNSt8_Rb_treeI21grpc_resolved_addressS0_St9_IdentityIS0_EN9grpc_core23ResolvedAddressLessThanESaIS0_EE8_M_eraseEPSt13_Rb_tree_nodeIS0_E(ptr noundef nonnull align 8 dereferenceable(48) %e1, ptr noundef %5)
          to label %_ZN9grpc_core18EndpointAddressSetD2Ev.exit5 unwind label %terminate.lpad.i.i.i4

terminate.lpad.i.i.i4:                            ; preds = %_ZN9grpc_core18EndpointAddressSetD2Ev.exit
  %6 = landingpad { ptr, i32 }
          catch ptr null
  %7 = extractvalue { ptr, i32 } %6, 0
  call void @__clang_call_terminate(ptr %7) #31
  unreachable

_ZN9grpc_core18EndpointAddressSetD2Ev.exit5:      ; preds = %_ZN9grpc_core18EndpointAddressSetD2Ev.exit
  ret i1 %call6

lpad:                                             ; preds = %entry
  %8 = landingpad { ptr, i32 }
          cleanup
  br label %ehcleanup

lpad4:                                            ; preds = %invoke.cont3
  %9 = landingpad { ptr, i32 }
          cleanup
  call void @_ZN9grpc_core18EndpointAddressSetD2Ev(ptr noundef nonnull align 8 dereferenceable(48) %e2) #30
  br label %ehcleanup

ehcleanup:                                        ; preds = %lpad4, %lpad
  %.pn = phi { ptr, i32 } [ %9, %lpad4 ], [ %8, %lpad ]
  call void @_ZN9grpc_core18EndpointAddressSetD2Ev(ptr noundef nonnull align 8 dereferenceable(48) %e1) #30
  resume { ptr, i32 } %.pn
}